target datalayout = "e-m:e-p270:32:32-p271:32:32-p272:64:64-i64:64-i128:128-f80:128-n8:16:32:64-S128"
target triple = "x86_64-unknown-linux-gnu"

%"class.Assimp::PretransformVertices" = type <{ %"class.Assimp::BaseProcess", i8, i8, i8, i8, %class.aiMatrix4x4t, i8, [3 x i8] }>
%"class.Assimp::BaseProcess" = type { ptr, ptr, ptr }
%class.aiMatrix4x4t = type { float, float, float, float, float, float, float, float, float, float, float, float, float, float, float, float }

@.str = private unnamed_addr constant [22 x i8] c"PP_PTV_KEEP_HIERARCHY\00", align 1
@.str.1 = private unnamed_addr constant [17 x i8] c"PP_PTV_NORMALIZE\00", align 1
@.str.2 = private unnamed_addr constant [31 x i8] c"PP_PTV_ADD_ROOT_TRANSFORMATION\00", align 1
@.str.3 = private unnamed_addr constant [27 x i8] c"PP_PTV_ROOT_TRANSFORMATION\00", align 1
@.str.4 = private unnamed_addr constant [20 x i8] c"EXPORT_POINT_CLOUDS\00", align 1

; Function Attrs: mustprogress uwtable
define linkonce_odr noundef zeroext i1 @_ZNK6Assimp8Importer15GetPropertyBoolEPKcb(ptr noundef nonnull align 8 dereferenceable(8) %this, ptr noundef %szName, i1 noundef zeroext %bErrorReturn) #3 comdat align 2 {
entry:
  %this.addr = alloca ptr, align 8
  %szName.addr = alloca ptr, align 8
  %bErrorReturn.addr = alloca i8, align 1
  store ptr %this, ptr %this.addr, align 8
  store ptr %szName, ptr %szName.addr, align 8
  %frombool = zext i1 %bErrorReturn to i8
  store i8 %frombool, ptr %bErrorReturn.addr, align 1
  %this1 = load ptr, ptr %this.addr, align 8
  %0 = load ptr, ptr %szName.addr, align 8
  %1 = load i8, ptr %bErrorReturn.addr, align 1
  %tobool = trunc i8 %1 to i1
  %conv = zext i1 %tobool to i32
  %call = call noundef i32 @_ZNK6Assimp8Importer18GetPropertyIntegerEPKci(ptr noundef nonnull align 8 dereferenceable(8) %this1, ptr noundef %0, i32 noundef %conv)
  %cmp = icmp ne i32 %call, 0
  ret i1 %cmp
}

; Function Attrs: mustprogress nounwind uwtable
define linkonce_odr hidden void @_ZN12aiMatrix4x4tIfEC2Ev(ptr noundef nonnull align 4 dereferenceable(64) %this) unnamed_addr #0 comdat align 2 {
entry:
  %this.addr = alloca ptr, align 8
  store ptr %this, ptr %this.addr, align 8
  %this1 = load ptr, ptr %this.addr, align 8
  %a1 = getelementptr inbounds %class.aiMatrix4x4t, ptr %this1, i32 0, i32 0
  store float 1.000000e+00, ptr %a1, align 4
  %a2 = getelementptr inbounds %class.aiMatrix4x4t, ptr %this1, i32 0, i32 1
  store float 0.000000e+00, ptr %a2, align 4
  %a3 = getelementptr inbounds %class.aiMatrix4x4t, ptr %this1, i32 0, i32 2
  store float 0.000000e+00, ptr %a3, align 4
  %a4 = getelementptr inbounds %class.aiMatrix4x4t, ptr %this1, i32 0, i32 3
  store float 0.000000e+00, ptr %a4, align 4
  %b1 = getelementptr inbounds %class.aiMatrix4x4t, ptr %this1, i32 0, i32 4
  store float 0.000000e+00, ptr %b1, align 4
  %b2 = getelementptr inbounds %class.aiMatrix4x4t, ptr %this1, i32 0, i32 5
  store float 1.000000e+00, ptr %b2, align 4
  %b3 = getelementptr inbounds %class.aiMatrix4x4t, ptr %this1, i32 0, i32 6
  store float 0.000000e+00, ptr %b3, align 4
  %b4 = getelementptr inbounds %class.aiMatrix4x4t, ptr %this1, i32 0, i32 7
  store float 0.000000e+00, ptr %b4, align 4
  %c1 = getelementptr inbounds %class.aiMatrix4x4t, ptr %this1, i32 0, i32 8
  store float 0.000000e+00, ptr %c1, align 4
  %c2 = getelementptr inbounds %class.aiMatrix4x4t, ptr %this1, i32 0, i32 9
  store float 0.000000e+00, ptr %c2, align 4
  %c3 = getelementptr inbounds %class.aiMatrix4x4t, ptr %this1, i32 0, i32 10
  store float 1.000000e+00, ptr %c3, align 4
  %c4 = getelementptr inbounds %class.aiMatrix4x4t, ptr %this1, i32 0, i32 11
  store float 0.000000e+00, ptr %c4, align 4
  %d1 = getelementptr inbounds %class.aiMatrix4x4t, ptr %this1, i32 0, i32 12
  store float 0.000000e+00, ptr %d1, align 4
  %d2 = getelementptr inbounds %class.aiMatrix4x4t, ptr %this1, i32 0, i32 13
  store float 0.000000e+00, ptr %d2, align 4
  %d3 = getelementptr inbounds %class.aiMatrix4x4t, ptr %this1, i32 0, i32 14
  store float 0.000000e+00, ptr %d3, align 4
  %d4 = getelementptr inbounds %class.aiMatrix4x4t, ptr %this1, i32 0, i32 15
  store float 1.000000e+00, ptr %d4, align 4
  ret void
}

; Function Attrs: mustprogress uwtable
define void @_ZN6Assimp20PretransformVertices15SetupPropertiesEPKNS_8ImporterE(ptr noundef nonnull align 8 dereferenceable(93) %this, ptr noundef %pImp) unnamed_addr #3 align 2 {
entry:
  %this.addr = alloca ptr, align 8
  %pImp.addr = alloca ptr, align 8
  %ref.tmp = alloca %class.aiMatrix4x4t, align 4
  %ref.tmp8 = alloca %class.aiMatrix4x4t, align 4
  store ptr %this, ptr %this.addr, align 8
  store ptr %pImp, ptr %pImp.addr, align 8
  %this1 = load ptr, ptr %this.addr, align 8
  %0 = load ptr, ptr %pImp.addr, align 8
  %call = call noundef i32 @_ZNK6Assimp8Importer18GetPropertyIntegerEPKci(ptr noundef nonnull align 8 dereferenceable(8) %0, ptr noundef @.str, i32 noundef 0)
  %cmp = icmp ne i32 0, %call
  %mConfigKeepHierarchy = getelementptr inbounds %"class.Assimp::PretransformVertices", ptr %this1, i32 0, i32 1
  %frombool = zext i1 %cmp to i8
  store i8 %frombool, ptr %mConfigKeepHierarchy, align 8
  %1 = load ptr, ptr %pImp.addr, align 8
  %call2 = call noundef i32 @_ZNK6Assimp8Importer18GetPropertyIntegerEPKci(ptr noundef nonnull align 8 dereferenceable(8) %1, ptr noundef @.str.1, i32 noundef 0)
  %cmp3 = icmp ne i32 0, %call2
  %mConfigNormalize = getelementptr inbounds %"class.Assimp::PretransformVertices", ptr %this1, i32 0, i32 2
  %frombool4 = zext i1 %cmp3 to i8
  store i8 %frombool4, ptr %mConfigNormalize, align 1
  %2 = load ptr, ptr %pImp.addr, align 8
  %call5 = call noundef i32 @_ZNK6Assimp8Importer18GetPropertyIntegerEPKci(ptr noundef nonnull align 8 dereferenceable(8) %2, ptr noundef @.str.2, i32 noundef 0)
  %cmp6 = icmp ne i32 0, %call5
  %mConfigTransform = getelementptr inbounds %"class.Assimp::PretransformVertices", ptr %this1, i32 0, i32 3
  %frombool7 = zext i1 %cmp6 to i8
  store i8 %frombool7, ptr %mConfigTransform, align 2
  %3 = load ptr, ptr %pImp.addr, align 8
  call void @_ZN12aiMatrix4x4tIfEC2Ev(ptr noundef nonnull align 4 dereferenceable(64) %ref.tmp8) #15
  call void @_ZNK6Assimp8Importer17GetPropertyMatrixEPKcRK12aiMatrix4x4tIfE(ptr sret(%class.aiMatrix4x4t) align 4 %ref.tmp, ptr noundef nonnull align 8 dereferenceable(8) %3, ptr noundef @.str.3, ptr noundef nonnull align 4 dereferenceable(64) %ref.tmp8)
  %mConfigTransformation = getelementptr inbounds %"class.Assimp::PretransformVertices", ptr %this1, i32 0, i32 5
  call void @llvm.memcpy.p0.p0.i64(ptr align 4 %mConfigTransformation, ptr align 4 %ref.tmp, i64 64, i1 false)
  %4 = load ptr, ptr %pImp.addr, align 8
  %call9 = call noundef zeroext i1 @_ZNK6Assimp8Importer15GetPropertyBoolEPKcb(ptr noundef nonnull align 8 dereferenceable(8) %4, ptr noundef @.str.4, i1 noundef zeroext false)
  %mConfigPointCloud = getelementptr inbounds %"class.Assimp::PretransformVertices", ptr %this1, i32 0, i32 6
  %frombool10 = zext i1 %call9 to i8
  store i8 %frombool10, ptr %mConfigPointCloud, align 4
  ret void
}