; Function Attrs: mustprogress uwtable
define void @_ZN6Assimp20PretransformVertices15SetupPropertiesEPKNS_8ImporterE(ptr nocapture noundef nonnull writeonly align 8 dereferenceable(93) %this, ptr noundef nonnull %pImp) unnamed_addr #3 align 2 {
entry:
  %ref.tmp = alloca %class.aiMatrix4x4t, align 4
  %ref.tmp8 = alloca %class.aiMatrix4x4t, align 4
  %call = tail call noundef i32 @_ZNK6Assimp8Importer18GetPropertyIntegerEPKci(ptr noundef nonnull align 8 dereferenceable(8) %pImp, ptr noundef nonnull @.str, i32 noundef 0)
  %cmp = icmp ne i32 %call, 0
  %mConfigKeepHierarchy = getelementptr inbounds i8, ptr %this, i64 24
  %frombool = zext i1 %cmp to i8
  store i8 %frombool, ptr %mConfigKeepHierarchy, align 8
  %call2 = tail call noundef i32 @_ZNK6Assimp8Importer18GetPropertyIntegerEPKci(ptr noundef nonnull align 8 dereferenceable(8) %pImp, ptr noundef nonnull @.str.1, i32 noundef 0)
  %cmp3 = icmp ne i32 %call2, 0
  %mConfigNormalize = getelementptr inbounds i8, ptr %this, i64 25
  %frombool4 = zext i1 %cmp3 to i8
  store i8 %frombool4, ptr %mConfigNormalize, align 1
  %call5 = tail call noundef i32 @_ZNK6Assimp8Importer18GetPropertyIntegerEPKci(ptr noundef nonnull align 8 dereferenceable(8) %pImp, ptr noundef nonnull @.str.2, i32 noundef 0)
  %cmp6 = icmp ne i32 %call5, 0
  %mConfigTransform = getelementptr inbounds i8, ptr %this, i64 26
  %frombool7 = zext i1 %cmp6 to i8
  store i8 %frombool7, ptr %mConfigTransform, align 2
  store float 1.000000e+00, ptr %ref.tmp8, align 4
  %a2.i = getelementptr inbounds i8, ptr %ref.tmp8, i64 4
  %b2.i = getelementptr inbounds i8, ptr %ref.tmp8, i64 20
  call void @llvm.memset.p0.i64(ptr noundef nonnull align 4 dereferenceable(16) %a2.i, i8 0, i64 16, i1 false)
  store float 1.000000e+00, ptr %b2.i, align 4
  %b3.i = getelementptr inbounds i8, ptr %ref.tmp8, i64 24
  %c3.i = getelementptr inbounds i8, ptr %ref.tmp8, i64 40
  call void @llvm.memset.p0.i64(ptr noundef nonnull align 4 dereferenceable(16) %b3.i, i8 0, i64 16, i1 false)
  store float 1.000000e+00, ptr %c3.i, align 4
  %c4.i = getelementptr inbounds i8, ptr %ref.tmp8, i64 44
  %d4.i = getelementptr inbounds i8, ptr %ref.tmp8, i64 60
  call void @llvm.memset.p0.i64(ptr noundef nonnull align 4 dereferenceable(16) %c4.i, i8 0, i64 16, i1 false)
  store float 1.000000e+00, ptr %d4.i, align 4
  call void @_ZNK6Assimp8Importer17GetPropertyMatrixEPKcRK12aiMatrix4x4tIfE(ptr nonnull sret(%class.aiMatrix4x4t) align 4 %ref.tmp, ptr noundef nonnull align 8 dereferenceable(8) %pImp, ptr noundef nonnull @.str.3, ptr noundef nonnull align 4 dereferenceable(64) %ref.tmp8)
  %mConfigTransformation = getelementptr inbounds i8, ptr %this, i64 28
  call void @llvm.memcpy.p0.p0.i64(ptr noundef nonnull align 4 dereferenceable(64) %mConfigTransformation, ptr noundef nonnull align 4 dereferenceable(64) %ref.tmp, i64 64, i1 false)
  %call.i = call noundef i32 @_ZNK6Assimp8Importer18GetPropertyIntegerEPKci(ptr noundef nonnull align 8 dereferenceable(8) %pImp, ptr noundef nonnull @.str.4, i32 noundef 0)
  %cmp.i = icmp ne i32 %call.i, 0
  %mConfigPointCloud = getelementptr inbounds i8, ptr %this, i64 92
  %frombool10 = zext i1 %cmp.i to i8
  store i8 %frombool10, ptr %mConfigPointCloud, align 4
  ret void
}